target datalayout = "e-m:e-p270:32:32-p271:32:32-p272:64:64-i64:64-i128:128-f80:128-n8:16:32:64-S128"
target triple = "x86_64-unknown-linux-gnu"

%"class.sat::prob" = type { %"class.sat::i_local_search", %"struct.sat::prob::config", %class.reslimit, %"class.sat::clause_allocator", %class.ptr_vector.7, %class.svector.9, %class.svector.11, %class.svector.11, i32, %class.vector.13, %class.svector.5, %class.svector.5, %class.svector.14, %class.svector.14, %class.indexed_uint_set, %class.random_gen, %class.svector.5, i64, i64, i32, [4 x i8], %class.stopwatch, %class.svector.16 }
%"class.sat::i_local_search" = type { ptr }
%"struct.sat::prob::config" = type { i32, i32, double, double }
%class.reslimit = type { %"struct.std::atomic", i8, i64, i64, %class.svector, %class.ptr_vector }
%"struct.std::atomic" = type { %"struct.std::__atomic_base" }
%"struct.std::__atomic_base" = type { i32 }
%class.svector = type { %class.vector }
%class.vector = type { ptr }
%class.ptr_vector = type { %class.vector.0 }
%class.vector.0 = type { ptr }
%"class.sat::clause_allocator" = type { %class.sat_allocator, %class.id_gen }
%class.sat_allocator = type { ptr, i64, %class.ptr_vector.1, ptr, [65 x %class.ptr_vector.3] }
%class.ptr_vector.1 = type { %class.vector.2 }
%class.vector.2 = type { ptr }
%class.ptr_vector.3 = type { %class.vector.4 }
%class.vector.4 = type { ptr }
%class.id_gen = type { i32, %class.svector.5 }
%class.ptr_vector.7 = type { %class.vector.8 }
%class.vector.8 = type { ptr }
%class.svector.9 = type { %class.vector.10 }
%class.vector.10 = type { ptr }
%class.svector.11 = type { %class.vector.12 }
%class.vector.12 = type { ptr }
%class.vector.13 = type { ptr }
%class.svector.14 = type { %class.vector.15 }
%class.vector.15 = type { ptr }
%class.indexed_uint_set = type { i32, %class.svector.5, %class.svector.5 }
%class.random_gen = type { i32 }
%class.svector.5 = type { %class.vector.6 }
%class.vector.6 = type { ptr }
%class.stopwatch = type <{ %"class.std::chrono::time_point", %"class.std::chrono::duration", i8, [7 x i8] }>
%"class.std::chrono::time_point" = type { %"class.std::chrono::duration" }
%"class.std::chrono::duration" = type { i64 }
%class.svector.16 = type { %class.vector.17 }
%class.vector.17 = type { ptr }

; Function Attrs: mustprogress nounwind uwtable
define linkonce_odr hidden i64 @_ZN9stopwatch3getEv() #4 comdat align 2 {
entry:
  %retval = alloca %"class.std::chrono::time_point", align 8
  %call = call i64 @_ZNSt6chrono3_V212steady_clock3nowEv() #3
  %coerce.dive = getelementptr inbounds %"class.std::chrono::time_point", ptr %retval, i32 0, i32 0
  %coerce.dive1 = getelementptr inbounds %"class.std::chrono::duration", ptr %coerce.dive, i32 0, i32 0
  store i64 %call, ptr %coerce.dive1, align 8
  %coerce.dive2 = getelementptr inbounds %"class.std::chrono::time_point", ptr %retval, i32 0, i32 0
  %coerce.dive3 = getelementptr inbounds %"class.std::chrono::duration", ptr %coerce.dive2, i32 0, i32 0
  %0 = load i64, ptr %coerce.dive3, align 8
  ret i64 %0
}

; Function Attrs: mustprogress nounwind uwtable
define linkonce_odr hidden noundef nonnull align 1 dereferenceable(1) ptr @_ZN6vectorIbLb0EjEixEj(ptr noundef nonnull align 8 dereferenceable(8) %this, i32 noundef %idx) #4 comdat align 2 {
entry:
  %this.addr = alloca ptr, align 8
  %idx.addr = alloca i32, align 4
  store ptr %this, ptr %this.addr, align 8
  store i32 %idx, ptr %idx.addr, align 4
  %this1 = load ptr, ptr %this.addr, align 8
  %m_data = getelementptr inbounds %class.vector.12, ptr %this1, i32 0, i32 0
  %0 = load ptr, ptr %m_data, align 8
  %1 = load i32, ptr %idx.addr, align 4
  %idxprom = zext i32 %1 to i64
  %arrayidx = getelementptr inbounds i8, ptr %0, i64 %idxprom
  ret ptr %arrayidx
}

; Function Attrs: mustprogress nounwind uwtable
define linkonce_odr hidden noundef i32 @_ZN10random_genclEv(ptr noundef nonnull align 4 dereferenceable(4) %this) #4 comdat align 2 {
entry:
  %this.addr = alloca ptr, align 8
  store ptr %this, ptr %this.addr, align 8
  %this1 = load ptr, ptr %this.addr, align 8
  %m_data = getelementptr inbounds %class.random_gen, ptr %this1, i32 0, i32 0
  %0 = load i32, ptr %m_data, align 4
  %conv = zext i32 %0 to i64
  %mul = mul nsw i64 %conv, 214013
  %add = add nsw i64 %mul, 2531011
  %conv2 = trunc i64 %add to i32
  %m_data3 = getelementptr inbounds %class.random_gen, ptr %this1, i32 0, i32 0
  store i32 %conv2, ptr %m_data3, align 4
  %shr = lshr i32 %conv2, 16
  %and = and i32 %shr, 32767
  ret i32 %and
}

; Function Attrs: mustprogress nounwind uwtable
define linkonce_odr hidden noundef i32 @_ZNK6vectorIbLb0EjE4sizeEv(ptr noundef nonnull align 8 dereferenceable(8) %this) #4 comdat align 2 {
entry:
  %retval = alloca i32, align 4
  %this.addr = alloca ptr, align 8
  store ptr %this, ptr %this.addr, align 8
  %this1 = load ptr, ptr %this.addr, align 8
  %m_data = getelementptr inbounds %class.vector.12, ptr %this1, i32 0, i32 0
  %0 = load ptr, ptr %m_data, align 8
  %cmp = icmp eq ptr %0, null
  br i1 %cmp, label %if.then, label %if.end

if.then:                                          ; preds = %entry
  store i32 0, ptr %retval, align 4
  br label %return

if.end:                                           ; preds = %entry
  %m_data2 = getelementptr inbounds %class.vector.12, ptr %this1, i32 0, i32 0
  %1 = load ptr, ptr %m_data2, align 8
  %arrayidx = getelementptr inbounds i32, ptr %1, i64 -1
  %2 = load i32, ptr %arrayidx, align 4
  store i32 %2, ptr %retval, align 4
  br label %return

return:                                           ; preds = %if.end, %if.then
  %3 = load i32, ptr %retval, align 4
  ret i32 %3
}

; Function Attrs: mustprogress nounwind uwtable
define linkonce_odr hidden void @_ZN9stopwatch5startEv(ptr noundef nonnull align 8 dereferenceable(17) %this) #4 comdat align 2 {
entry:
  %this.addr = alloca ptr, align 8
  %ref.tmp = alloca %"class.std::chrono::time_point", align 8
  store ptr %this, ptr %this.addr, align 8
  %this1 = load ptr, ptr %this.addr, align 8
  %m_running = getelementptr inbounds %class.stopwatch, ptr %this1, i32 0, i32 2
  %0 = load i8, ptr %m_running, align 8
  %tobool = trunc i8 %0 to i1
  br i1 %tobool, label %if.end, label %if.then

if.then:                                          ; preds = %entry
  %call = call i64 @_ZN9stopwatch3getEv()
  %coerce.dive = getelementptr inbounds %"class.std::chrono::time_point", ptr %ref.tmp, i32 0, i32 0
  %coerce.dive2 = getelementptr inbounds %"class.std::chrono::duration", ptr %coerce.dive, i32 0, i32 0
  store i64 %call, ptr %coerce.dive2, align 8
  %m_start = getelementptr inbounds %class.stopwatch, ptr %this1, i32 0, i32 0
  call void @llvm.memcpy.p0.p0.i64(ptr align 8 %m_start, ptr align 8 %ref.tmp, i64 8, i1 false)
  %m_running3 = getelementptr inbounds %class.stopwatch, ptr %this1, i32 0, i32 2
  store i8 1, ptr %m_running3, align 8
  br label %if.end

if.end:                                           ; preds = %if.then, %entry
  ret void
}

; Function Attrs: mustprogress uwtable
define hidden void @_ZN3sat4prob18init_random_valuesEv(ptr noundef nonnull align 8 dereferenceable(816) %this) #7 align 2 {
entry:
  %this.addr = alloca ptr, align 8
  %v = alloca i32, align 4
  store ptr %this, ptr %this.addr, align 8
  %this1 = load ptr, ptr %this.addr, align 8
  store i32 0, ptr %v, align 4
  br label %for.cond

for.cond:                                         ; preds = %for.inc, %entry
  %0 = load i32, ptr %v, align 4
  %m_values = getelementptr inbounds %"class.sat::prob", ptr %this1, i32 0, i32 6
  %call = call noundef i32 @_ZNK6vectorIbLb0EjE4sizeEv(ptr noundef nonnull align 8 dereferenceable(8) %m_values)
  %cmp = icmp ult i32 %0, %call
  br i1 %cmp, label %for.body, label %for.end

for.body:                                         ; preds = %for.cond
  %m_rand = getelementptr inbounds %"class.sat::prob", ptr %this1, i32 0, i32 15
  %call2 = call noundef i32 @_ZN10random_genclEv(ptr noundef nonnull align 4 dereferenceable(4) %m_rand)
  %rem = srem i32 %call2, 2
  %cmp3 = icmp eq i32 %rem, 0
  %m_values4 = getelementptr inbounds %"class.sat::prob", ptr %this1, i32 0, i32 6
  %1 = load i32, ptr %v, align 4
  %call5 = call noundef nonnull align 1 dereferenceable(1) ptr @_ZN6vectorIbLb0EjEixEj(ptr noundef nonnull align 8 dereferenceable(8) %m_values4, i32 noundef %1)
  %frombool = zext i1 %cmp3 to i8
  store i8 %frombool, ptr %call5, align 1
  br label %for.inc

for.inc:                                          ; preds = %for.body
  %2 = load i32, ptr %v, align 4
  %inc = add i32 %2, 1
  store i32 %inc, ptr %v, align 4
  br label %for.cond, !llvm.loop !13

for.end:                                          ; preds = %for.cond
  ret void
}

; Function Attrs: mustprogress uwtable
define hidden void @_ZN3sat4prob4initEv(ptr noundef nonnull align 8 dereferenceable(816) %this) #7 align 2 {
entry:
  %this.addr = alloca ptr, align 8
  store ptr %this, ptr %this.addr, align 8
  %this1 = load ptr, ptr %this.addr, align 8
  call void @_ZN3sat4prob16flatten_use_listEv(ptr noundef nonnull align 8 dereferenceable(816) %this1)
  call void @_ZN3sat4prob18init_random_valuesEv(ptr noundef nonnull align 8 dereferenceable(816) %this1)
  call void @_ZN3sat4prob12init_clausesEv(ptr noundef nonnull align 8 dereferenceable(816) %this1)
  call void @_ZN3sat4prob11auto_configEv(ptr noundef nonnull align 8 dereferenceable(816) %this1)
  call void @_ZN3sat4prob16save_best_valuesEv(ptr noundef nonnull align 8 dereferenceable(816) %this1)
  %m_restart_count = getelementptr inbounds %"class.sat::prob", ptr %this1, i32 0, i32 19
  store i32 1, ptr %m_restart_count, align 8
  %m_flips = getelementptr inbounds %"class.sat::prob", ptr %this1, i32 0, i32 17
  store i64 0, ptr %m_flips, align 8
  %m_config = getelementptr inbounds %"class.sat::prob", ptr %this1, i32 0, i32 1
  %m_restart_offset = getelementptr inbounds %"struct.sat::prob::config", ptr %m_config, i32 0, i32 1
  %0 = load i32, ptr %m_restart_offset, align 4
  %conv = zext i32 %0 to i64
  %m_next_restart = getelementptr inbounds %"class.sat::prob", ptr %this1, i32 0, i32 18
  store i64 %conv, ptr %m_next_restart, align 8
  %m_stopwatch = getelementptr inbounds %"class.sat::prob", ptr %this1, i32 0, i32 21
  call void @_ZN9stopwatch5startEv(ptr noundef nonnull align 8 dereferenceable(17) %m_stopwatch)
  ret void
}