; Function Attrs: mustprogress uwtable
define hidden void @_ZN3sat4prob4initEv(ptr noundef nonnull align 8 dereferenceable(816) %this) local_unnamed_addr #6 align 2 {
entry:
  tail call void @_ZN3sat4prob16flatten_use_listEv(ptr noundef nonnull align 8 dereferenceable(816) %this)
  %m_values.i = getelementptr inbounds i8, ptr %this, i64 656
  %m_rand.i = getelementptr inbounds i8, ptr %this, i64 744
  br label %for.cond.i

for.cond.i:                                       ; preds = %for.body.i, %entry
  %indvars.iv.i = phi i64 [ %indvars.iv.next.i, %for.body.i ], [ 0, %entry ]
  %0 = load ptr, ptr %m_values.i, align 8
  %cmp.i.i = icmp eq ptr %0, null
  br i1 %cmp.i.i, label %_ZNK6vectorIbLb0EjE4sizeEv.exit.i, label %if.end.i.i

if.end.i.i:                                       ; preds = %for.cond.i
  %arrayidx.i.i = getelementptr inbounds i8, ptr %0, i64 -4
  %1 = load i32, ptr %arrayidx.i.i, align 4
  br label %_ZNK6vectorIbLb0EjE4sizeEv.exit.i

_ZNK6vectorIbLb0EjE4sizeEv.exit.i:                ; preds = %if.end.i.i, %for.cond.i
  %retval.0.i.i = phi i32 [ %1, %if.end.i.i ], [ 0, %for.cond.i ]
  %2 = zext i32 %retval.0.i.i to i64
  %cmp.i = icmp ult i64 %indvars.iv.i, %2
  br i1 %cmp.i, label %for.body.i, label %_ZN3sat4prob18init_random_valuesEv.exit

for.body.i:                                       ; preds = %_ZNK6vectorIbLb0EjE4sizeEv.exit.i
  %3 = load i32, ptr %m_rand.i, align 8
  %mul.i.i = mul i32 %3, 214013
  %add.i.i = add i32 %mul.i.i, 2531011
  store i32 %add.i.i, ptr %m_rand.i, align 8
  %shr.i.i = lshr i32 %add.i.i, 16
  %arrayidx.i3.i = getelementptr inbounds i8, ptr %0, i64 %indvars.iv.i
  %4 = trunc i32 %shr.i.i to i8
  %5 = and i8 %4, 1
  %frombool.i = xor i8 %5, 1
  store i8 %frombool.i, ptr %arrayidx.i3.i, align 1
  %indvars.iv.next.i = add nuw nsw i64 %indvars.iv.i, 1
  br label %for.cond.i, !llvm.loop !8

_ZN3sat4prob18init_random_valuesEv.exit:          ; preds = %_ZNK6vectorIbLb0EjE4sizeEv.exit.i
  tail call void @_ZN3sat4prob12init_clausesEv(ptr noundef nonnull align 8 dereferenceable(816) %this)
  tail call void @_ZN3sat4prob11auto_configEv(ptr noundef nonnull align 8 dereferenceable(816) %this)
  tail call void @_ZN3sat4prob16save_best_valuesEv(ptr noundef nonnull align 8 dereferenceable(816) %this)
  %m_restart_count = getelementptr inbounds i8, ptr %this, i64 776
  store i32 1, ptr %m_restart_count, align 8
  %m_flips = getelementptr inbounds i8, ptr %this, i64 760
  store i64 0, ptr %m_flips, align 8
  %m_restart_offset = getelementptr inbounds i8, ptr %this, i64 12
  %6 = load i32, ptr %m_restart_offset, align 4
  %conv = zext i32 %6 to i64
  %m_next_restart = getelementptr inbounds i8, ptr %this, i64 768
  store i64 %conv, ptr %m_next_restart, align 8
  %m_running.i = getelementptr inbounds i8, ptr %this, i64 800
  %7 = load i8, ptr %m_running.i, align 8
  %8 = and i8 %7, 1
  %tobool.not.i = icmp eq i8 %8, 0
  br i1 %tobool.not.i, label %if.then.i, label %_ZN9stopwatch5startEv.exit

if.then.i:                                        ; preds = %_ZN3sat4prob18init_random_valuesEv.exit
  %m_stopwatch = getelementptr inbounds i8, ptr %this, i64 784
  %call.i.i = tail call i64 @_ZNSt6chrono3_V212steady_clock3nowEv() #19
  store i64 %call.i.i, ptr %m_stopwatch, align 8
  store i8 1, ptr %m_running.i, align 8
  br label %_ZN9stopwatch5startEv.exit

_ZN9stopwatch5startEv.exit:                       ; preds = %_ZN3sat4prob18init_random_valuesEv.exit, %if.then.i
  ret void
}